; Function Attrs: nounwind uwtable
define noalias noundef ptr @Gia_ManResubRemapSolution(ptr noundef readonly captures(none) %0, ptr noundef readonly captures(none) %1) local_unnamed_addr #0 {
  %3 = getelementptr i8, ptr %0, i64 4
  %.val9 = load i32, ptr %3, align 4, !tbaa !28
  %4 = tail call noalias dereferenceable_or_null(16) ptr @malloc(i64 noundef 16) #31
  %5 = add i32 %.val9, -1
  %or.cond.i = icmp ult i32 %5, 15
  %spec.store.select.i = select i1 %or.cond.i, i32 16, i32 %.val9
  %6 = getelementptr inbounds nuw i8, ptr %4, i64 4
  store i32 0, ptr %6, align 4, !tbaa !28
  store i32 %spec.store.select.i, ptr %4, align 8, !tbaa !29
  %.not.i = icmp eq i32 %spec.store.select.i, 0
  br i1 %.not.i, label %Vec_IntAlloc.exit, label %7

7:                                                ; preds = %2
  %8 = sext i32 %spec.store.select.i to i64
  %9 = shl nsw i64 %8, 2
  %10 = tail call noalias ptr @malloc(i64 noundef %9) #31
  br label %Vec_IntAlloc.exit

Vec_IntAlloc.exit:                                ; preds = %2, %7
  %11 = phi ptr [ %10, %7 ], [ null, %2 ]
  %12 = getelementptr inbounds nuw i8, ptr %4, i64 8
  store ptr %11, ptr %12, align 8, !tbaa !30
  %13 = icmp sgt i32 %.val9, 0
  br i1 %13, label %.lr.ph, label %.critedge

.lr.ph:                                           ; preds = %Vec_IntAlloc.exit
  %14 = getelementptr i8, ptr %0, i64 8
  %15 = getelementptr i8, ptr %1, i64 8
  br label %16

16:                                               ; preds = %.lr.ph, %Vec_IntPush.exit
  %17 = phi ptr [ %11, %.lr.ph ], [ %.pre.i16, %Vec_IntPush.exit ]
  %indvars.iv = phi i64 [ 0, %.lr.ph ], [ %indvars.iv.next, %Vec_IntPush.exit ]
  %.val10 = load ptr, ptr %14, align 8, !tbaa !30
  %18 = getelementptr inbounds nuw i32, ptr %.val10, i64 %indvars.iv
  %19 = load i32, ptr %18, align 4, !tbaa !31
  %.val11 = load ptr, ptr %15, align 8, !tbaa !30
  %20 = ashr i32 %19, 1
  %21 = sext i32 %20 to i64
  %22 = getelementptr inbounds i32, ptr %.val11, i64 %21
  %23 = load i32, ptr %22, align 4, !tbaa !31
  %24 = and i32 %19, 1
  %25 = shl nsw i32 %23, 1
  %26 = or disjoint i32 %25, %24
  %27 = load i32, ptr %6, align 4, !tbaa !28
  %28 = load i32, ptr %4, align 8, !tbaa !29
  %29 = icmp eq i32 %27, %28
  br i1 %29, label %30, label %Vec_IntPush.exit

30:                                               ; preds = %16
  %31 = icmp slt i32 %27, 16
  br i1 %31, label %32, label %37

32:                                               ; preds = %30
  %.not9.i.i = icmp eq ptr %17, null
  br i1 %.not9.i.i, label %35, label %33

33:                                               ; preds = %32
  %34 = tail call dereferenceable_or_null(64) ptr @realloc(ptr noundef nonnull %17, i64 noundef 64) #30
  br label %Vec_IntPush.exit.sink.split

35:                                               ; preds = %32
  %36 = tail call noalias dereferenceable_or_null(64) ptr @malloc(i64 noundef 64) #31
  br label %Vec_IntPush.exit.sink.split

37:                                               ; preds = %30
  %38 = shl nuw nsw i32 %27, 1
  %.not9.i9.i = icmp eq ptr %17, null
  %39 = zext nneg i32 %38 to i64
  %40 = shl nuw nsw i64 %39, 2
  br i1 %.not9.i9.i, label %43, label %41

41:                                               ; preds = %37
  %42 = tail call ptr @realloc(ptr noundef nonnull %17, i64 noundef %40) #30
  br label %Vec_IntPush.exit.sink.split

43:                                               ; preds = %37
  %44 = tail call noalias ptr @malloc(i64 noundef %40) #31
  br label %Vec_IntPush.exit.sink.split

Vec_IntPush.exit.sink.split:                      ; preds = %41, %43, %33, %35
  %.sink17 = phi ptr [ %34, %33 ], [ %36, %35 ], [ %42, %41 ], [ %44, %43 ]
  %.sink = phi i32 [ 16, %33 ], [ 16, %35 ], [ %38, %41 ], [ %38, %43 ]
  store ptr %.sink17, ptr %12, align 8, !tbaa !30
  store i32 %.sink, ptr %4, align 8, !tbaa !29
  br label %Vec_IntPush.exit

Vec_IntPush.exit:                                 ; preds = %Vec_IntPush.exit.sink.split, %16
  %.pre.i16 = phi ptr [ %17, %16 ], [ %.sink17, %Vec_IntPush.exit.sink.split ]
  %45 = add nsw i32 %27, 1
  store i32 %45, ptr %6, align 4, !tbaa !28
  %46 = sext i32 %27 to i64
  %47 = getelementptr inbounds i32, ptr %.pre.i16, i64 %46
  store i32 %26, ptr %47, align 4, !tbaa !31
  %indvars.iv.next = add nuw nsw i64 %indvars.iv, 1
  %.val = load i32, ptr %3, align 4, !tbaa !28
  %48 = sext i32 %.val to i64
  %49 = icmp slt i64 %indvars.iv.next, %48
  br i1 %49, label %16, label %.critedge, !llvm.loop !228

.critedge:                                        ; preds = %Vec_IntPush.exit, %Vec_IntAlloc.exit
  ret ptr %4
}